
Discarded input sections

 .data          0x00000000        0x0 Build/main.o
 .bss           0x00000000        0x0 Build/main.o
 .text          0x00000000        0x0 Build/os.o
 .data          0x00000000        0x0 Build/os.o
 .bss           0x00000000        0x0 Build/os.o
 .debug_info    0x00000000       0x64 Build/os.o
 .debug_abbrev  0x00000000       0x26 Build/os.o
 .debug_aranges
                0x00000000       0x18 Build/os.o
 .debug_line    0x00000000       0x1d Build/os.o
 .debug_str     0x00000000      0x123 Build/os.o
 .comment       0x00000000       0x4a Build/os.o
 .ARM.attributes
                0x00000000       0x2d Build/os.o
 .data          0x00000000        0x0 Build/startup.o
 .bss           0x00000000        0x0 Build/startup.o

Memory Configuration

Name             Origin             Length             Attributes
SRAM             0x20000000         0x00005000         xrw
FLASH            0x08000000         0x00010000         xr
RAM              0x00000000         0xffffffff
*default*        0x00000000         0xffffffff

Linker script and memory map

LOAD Build/main.o
LOAD Build/os.o
LOAD Build/startup.o
                0x20005000                _estack = (ORIGIN (SRAM) + LENGTH (SRAM))
                0x00000200                _Min_Heap_Size = 0x200
                0x00000400                _Min_Stack_Size = 0x400

.isr_vector     0x08000000       0xec
                0x08000000                . = ALIGN (0x4)
 *(.isr_vector)
 .isr_vector    0x08000000       0xec Build/startup.o
                0x08000000                isr_vector
                0x080000ec                . = ALIGN (0x4)

.text           0x080000ec      0x33c
                0x080000ec                . = ALIGN (0x4)
 *(.text)
 .text          0x080000ec      0x2dc Build/main.o
                0x080000ec                Set_Motor_Speed
                0x080001b8                move_forward
                0x080001de                move_backward
                0x0800020c                turn_left
                0x08000236                turn_right
                0x08000260                stop_robot
                0x08000278                delay
                0x08000298                main
 .text          0x080003c8       0x60 Build/startup.o
                0x080003c8                RTC_Alarm_IRQHandler
                0x080003c8                EXTI2_IRQHandler
                0x080003c8                SVCall_Handler
                0x080003c8                TIM1_CC_IRQHandler
                0x080003c8                Systick_Handler
                0x080003c8                Hardfault_Handler
                0x080003c8                PVD_IRQHandler
                0x080003c8                PendSV_Handler
                0x080003c8                NMI_Handler
                0x080003c8                EXTI3_IRQHandler
                0x080003c8                EXTI0_IRQHandler
                0x080003c8                I2C2_EV_IRQHandler
                0x080003c8                UsageFault_Handler
                0x080003c8                ADC1_2_IRQHandler
                0x080003c8                SPI1_IRQHandler
                0x080003c8                TAMPER_IRQHandler
                0x080003c8                DMA1_Channel4_IRQHandler
                0x080003c8                USART3_IRQHandler
                0x080003c8                RTC_IRQHandler
                0x080003c8                DMA1_Channel7_IRQHandler
                0x080003c8                I2C1_ER_IRQHandler
                0x080003c8                CAN1_RX1_IRQHandler
                0x080003c8                TIM4_IRQHandler
                0x080003c8                I2C1_EV_IRQHandler
                0x080003c8                DMA1_Channel6_IRQHandler
                0x080003c8                TIM3_IRQHandler
                0x080003c8                RCC_IRQHandler
                0x080003c8                TIM1_TRG_COM_IRQHandler
                0x080003c8                DMA1_Channel1_IRQHandler
                0x080003c8                Default_Handler
                0x080003c8                EXTI15_10_IRQHandler
                0x080003c8                EXTI9_5_IRQHandler
                0x080003c8                SPI2_IRQHandler
                0x080003c8                MemManage_Handler
                0x080003c8                DMA1_Channel5_IRQHandler
                0x080003c8                EXTI4_IRQHandler
                0x080003c8                USB_LP_CAN1_RX0_IRQHandler
                0x080003c8                USB_HP_CAN1_TX_IRQHandler
                0x080003c8                DMA1_Channel3_IRQHandler
                0x080003c8                TIM1_UP_IRQHandler
                0x080003c8                WWDG_IRQHandler
                0x080003c8                TIM2_IRQHandler
                0x080003c8                TIM1_BRK_IRQHandler
                0x080003c8                EXTI1_IRQHandler
                0x080003c8                USART2_IRQHandler
                0x080003c8                I2C2_ER_IRQHandler
                0x080003c8                DMA1_Channel2_IRQHandler
                0x080003c8                CAN1_SCE_IRQHandler
                0x080003c8                FLASH_IRQHandler
                0x080003c8                BusFault_Handler
                0x080003c8                USART1_IRQHandler
                0x080003c8                USBWakeUp_IRQHandler
                0x080003ce                Reset_Handler
 *(.text*)
 *(.glue_7)
 .glue_7        0x08000428        0x0 linker stubs
 *(.glue_7t)
 .glue_7t       0x08000428        0x0 linker stubs
 *(.eh_frame)
 *(.init)
 *(.fini)
                0x08000428                . = ALIGN (0x4)
                0x08000428                _etext = .

.vfp11_veneer   0x08000428        0x0
 .vfp11_veneer  0x08000428        0x0 linker stubs

.v4_bx          0x08000428        0x0
 .v4_bx         0x08000428        0x0 linker stubs

.iplt           0x08000428        0x0
 .iplt          0x08000428        0x0 Build/main.o

.rel.dyn        0x08000428        0x0
 .rel.iplt      0x08000428        0x0 Build/main.o

.rodata         0x08000428        0x0
                0x08000428                . = ALIGN (0x4)
 *(.rodata)
 *(.rodata*)
                0x08000428                . = ALIGN (0x4)

.ARM.extab      0x08000428        0x0
                0x08000428                . = ALIGN (0x4)
 *(.ARM.extab* .gnu.linkonce.armextab.*)
                0x08000428                . = ALIGN (0x4)

.ARM            0x08000428        0x0
                0x08000428                . = ALIGN (0x4)
                0x08000428                __exidix_start = .
 *(.ARM.exidx*)
                0x08000428                __exidix_end = .
                0x08000428                . = ALIGN (0x4)

preinit_array   0x08000428        0x0
                0x08000428                . = ALIGN (0x4)
                [!provide]                PROVIDE (__preinit_array_start = .)
 *(.preinit_array*)
                [!provide]                PROVIDE (__preinit_array_end = .)
                0x08000428                . = ALIGN (0x4)

init_array      0x08000428        0x0
                0x08000428                . = ALIGN (0x4)
                [!provide]                PROVIDE (__init_array_start = .)
 *SORT(.init_array*)
 *(.init_array*)
                [!provide]                PROVIDE (__init_array_end = .)
                0x08000428                . = ALIGN (0x4)

fini_array      0x08000428        0x0
                0x08000428                . = ALIGN (0x4)
                [!provide]                PROVIDE (__fini_array_start = .)
 *SORT(.fini_array*)
 *(.fini_array*)
                [!provide]                PROVIDE (__fini_array_end = .)
                0x08000428                . = ALIGN (0x4)
                0x08000428                _sidata = LOADADDR (.data)

.data           0x20000000        0x0 load address 0x08000428
                0x20000000                . = ALIGN (0x4)
                0x20000000                _sdata = .
 *(.data)
 *(.data*)
 *(.RamFunc)
 *(.RamFunc*)
                0x20000000                . = ALIGN (0x4)
                0x20000000                _edata = .

.igot.plt       0x20000000        0x0 load address 0x08000428
 .igot.plt      0x20000000        0x0 Build/main.o
                0x20000000                . = ALIGN (0x4)

.bss            0x00000000        0x0
                0x00000000                _sbss = .
                0x00000000                __bss_start__ = _sbss
 *(.bss)
 *(.bss*)
 *(COMMON)
                0x00000000                . = ALIGN (0x4)
                0x00000000                _ebss = .
                0x00000000                __bss_end__ = _ebss

._user_heap_stack
                0x00000000      0x600
                0x00000000                . = ALIGN (0x8)
                [!provide]                PROVIDE (end = .)
                [!provide]                PROVIDE (_end = .)
                0x00000200                . = (. + _Min_Heap_Size)
 *fill*         0x00000000      0x200 
                0x00000600                . = (. + _Min_Stack_Size)
 *fill*         0x00000200      0x400 
                0x00000600                . = ALIGN (0x8)

/DISCARD/
 libc.a(*)
 libm.a(*)
 libgcc.a(*)

.ARM.attributes
                0x00000000       0x2d
 *(.ARM.attributes)
 .ARM.attributes
                0x00000000       0x2d Build/main.o
 .ARM.attributes
                0x0000002d       0x2d Build/startup.o
OUTPUT(Build/project.elf elf32-littlearm)
LOAD linker stubs
LOAD c:/program files (x86)/gnu arm embedded toolchain/10 2021.10/bin/../lib/gcc/arm-none-eabi/10.3.1/../../../../arm-none-eabi/lib/thumb/v7-m/nofp\libc.a
LOAD c:/program files (x86)/gnu arm embedded toolchain/10 2021.10/bin/../lib/gcc/arm-none-eabi/10.3.1/../../../../arm-none-eabi/lib/thumb/v7-m/nofp\libm.a
LOAD c:/program files (x86)/gnu arm embedded toolchain/10 2021.10/bin/../lib/gcc/arm-none-eabi/10.3.1/thumb/v7-m/nofp\libgcc.a

.debug_info     0x00000000      0x5ed
 .debug_info    0x00000000      0x4b2 Build/main.o
 .debug_info    0x000004b2      0x13b Build/startup.o

.debug_abbrev   0x00000000      0x1eb
 .debug_abbrev  0x00000000      0x12a Build/main.o
 .debug_abbrev  0x0000012a       0xc1 Build/startup.o

.debug_aranges  0x00000000       0x40
 .debug_aranges
                0x00000000       0x20 Build/main.o
 .debug_aranges
                0x00000020       0x20 Build/startup.o

.debug_line     0x00000000      0x37a
 .debug_line    0x00000000      0x232 Build/main.o
 .debug_line    0x00000232      0x148 Build/startup.o

.debug_str      0x00000000      0x2d7
 .debug_str     0x00000000      0x26b Build/main.o
                                0x2c1 (size before relaxing)
 .debug_str     0x0000026b       0x6c Build/startup.o
                                0x19a (size before relaxing)

.comment        0x00000000       0x49
 .comment       0x00000000       0x49 Build/main.o
                                 0x4a (size before relaxing)
 .comment       0x00000049       0x4a Build/startup.o

.debug_frame    0x00000000      0x170
 .debug_frame   0x00000000      0x128 Build/main.o
 .debug_frame   0x00000128       0x48 Build/startup.o

Cross Reference Table

Symbol                                            File
ADC1_2_IRQHandler                                 Build/startup.o
BusFault_Handler                                  Build/startup.o
CAN1_RX1_IRQHandler                               Build/startup.o
CAN1_SCE_IRQHandler                               Build/startup.o
DMA1_Channel1_IRQHandler                          Build/startup.o
DMA1_Channel2_IRQHandler                          Build/startup.o
DMA1_Channel3_IRQHandler                          Build/startup.o
DMA1_Channel4_IRQHandler                          Build/startup.o
DMA1_Channel5_IRQHandler                          Build/startup.o
DMA1_Channel6_IRQHandler                          Build/startup.o
DMA1_Channel7_IRQHandler                          Build/startup.o
Default_Handler                                   Build/startup.o
EXTI0_IRQHandler                                  Build/startup.o
EXTI15_10_IRQHandler                              Build/startup.o
EXTI1_IRQHandler                                  Build/startup.o
EXTI2_IRQHandler                                  Build/startup.o
EXTI3_IRQHandler                                  Build/startup.o
EXTI4_IRQHandler                                  Build/startup.o
EXTI9_5_IRQHandler                                Build/startup.o
FLASH_IRQHandler                                  Build/startup.o
Hardfault_Handler                                 Build/startup.o
I2C1_ER_IRQHandler                                Build/startup.o
I2C1_EV_IRQHandler                                Build/startup.o
I2C2_ER_IRQHandler                                Build/startup.o
I2C2_EV_IRQHandler                                Build/startup.o
MemManage_Handler                                 Build/startup.o
NMI_Handler                                       Build/startup.o
PVD_IRQHandler                                    Build/startup.o
PendSV_Handler                                    Build/startup.o
RCC_IRQHandler                                    Build/startup.o
RTC_Alarm_IRQHandler                              Build/startup.o
RTC_IRQHandler                                    Build/startup.o
Reset_Handler                                     Build/startup.o
SPI1_IRQHandler                                   Build/startup.o
SPI2_IRQHandler                                   Build/startup.o
SVCall_Handler                                    Build/startup.o
Set_Motor_Speed                                   Build/main.o
Systick_Handler                                   Build/startup.o
TAMPER_IRQHandler                                 Build/startup.o
TIM1_BRK_IRQHandler                               Build/startup.o
TIM1_CC_IRQHandler                                Build/startup.o
TIM1_TRG_COM_IRQHandler                           Build/startup.o
TIM1_UP_IRQHandler                                Build/startup.o
TIM2_IRQHandler                                   Build/startup.o
TIM3_IRQHandler                                   Build/startup.o
TIM4_IRQHandler                                   Build/startup.o
USART1_IRQHandler                                 Build/startup.o
USART2_IRQHandler                                 Build/startup.o
USART3_IRQHandler                                 Build/startup.o
USBWakeUp_IRQHandler                              Build/startup.o
USB_HP_CAN1_TX_IRQHandler                         Build/startup.o
USB_LP_CAN1_RX0_IRQHandler                        Build/startup.o
UsageFault_Handler                                Build/startup.o
WWDG_IRQHandler                                   Build/startup.o
_ebss                                             Build/startup.o
_edata                                            Build/startup.o
_estack                                           Build/startup.o
_sbss                                             Build/startup.o
_sdata                                            Build/startup.o
_sidata                                           Build/startup.o
delay                                             Build/main.o
isr_vector                                        Build/startup.o
main                                              Build/main.o
                                                  Build/startup.o
move_backward                                     Build/main.o
move_forward                                      Build/main.o
stop_robot                                        Build/main.o
turn_left                                         Build/main.o
turn_right                                        Build/main.o
